TN:
SF:/home/businka/second_semester_programming/laba3/Node.hpp
FN:17,_ZN4NodeIiEC2ERKiPS0_S3_
FNDA:350,_ZN4NodeIiEC2ERKiPS0_S3_
DA:17,350
DA:18,350
DA:19,350
end_of_record
SF:/home/businka/second_semester_programming/laba3/list_testing.cpp
FN:14,_ZN14LinkedListTest5SetUpEv
FNDA:240,_ZN14LinkedListTest5SetUpEv
FN:19,_ZN29LinkedListTest_PushFront_TestC2Ev
FNDA:10,_ZN29LinkedListTest_PushFront_TestC2Ev
FN:19,_ZN29LinkedListTest_PushFront_Test8TestBodyEv
FNDA:10,_ZN29LinkedListTest_PushFront_Test8TestBodyEv
FN:19,_ZN29LinkedListTest_PushFront_TestD2Ev
FNDA:10,_ZN29LinkedListTest_PushFront_TestD2Ev
FN:19,_ZN29LinkedListTest_PushFront_TestD0Ev
FNDA:10,_ZN29LinkedListTest_PushFront_TestD0Ev
FN:30,_ZN28LinkedListTest_PushBack_TestC2Ev
FNDA:10,_ZN28LinkedListTest_PushBack_TestC2Ev
FN:30,_ZN28LinkedListTest_PushBack_Test8TestBodyEv
FNDA:10,_ZN28LinkedListTest_PushBack_Test8TestBodyEv
FN:30,_ZN28LinkedListTest_PushBack_TestD2Ev
FNDA:10,_ZN28LinkedListTest_PushBack_TestD2Ev
FN:30,_ZN28LinkedListTest_PushBack_TestD0Ev
FNDA:10,_ZN28LinkedListTest_PushBack_TestD0Ev
FN:41,_ZN36LinkedListTest_InsertValidIndex_TestC2Ev
FNDA:10,_ZN36LinkedListTest_InsertValidIndex_TestC2Ev
FN:41,_ZN36LinkedListTest_InsertValidIndex_Test8TestBodyEv
FNDA:10,_ZN36LinkedListTest_InsertValidIndex_Test8TestBodyEv
FN:41,_ZN36LinkedListTest_InsertValidIndex_TestD2Ev
FNDA:10,_ZN36LinkedListTest_InsertValidIndex_TestD2Ev
FN:41,_ZN36LinkedListTest_InsertValidIndex_TestD0Ev
FNDA:10,_ZN36LinkedListTest_InsertValidIndex_TestD0Ev
FN:56,_ZN38LinkedListTest_InsertInvalidIndex_TestC2Ev
FNDA:10,_ZN38LinkedListTest_InsertInvalidIndex_TestC2Ev
FN:56,_ZN38LinkedListTest_InsertInvalidIndex_Test8TestBodyEv
FNDA:10,_ZN38LinkedListTest_InsertInvalidIndex_Test8TestBodyEv
FN:56,_ZN38LinkedListTest_InsertInvalidIndex_TestD2Ev
FNDA:10,_ZN38LinkedListTest_InsertInvalidIndex_TestD2Ev
FN:56,_ZN38LinkedListTest_InsertInvalidIndex_TestD0Ev
FNDA:10,_ZN38LinkedListTest_InsertInvalidIndex_TestD0Ev
FN:71,_ZN27LinkedListTest_PopHead_TestD2Ev
FNDA:10,_ZN27LinkedListTest_PopHead_TestD2Ev
FN:71,_ZN27LinkedListTest_PopHead_TestC2Ev
FNDA:10,_ZN27LinkedListTest_PopHead_TestC2Ev
FN:71,_ZN27LinkedListTest_PopHead_Test8TestBodyEv
FNDA:10,_ZN27LinkedListTest_PopHead_Test8TestBodyEv
FN:71,_ZN27LinkedListTest_PopHead_TestD0Ev
FNDA:10,_ZN27LinkedListTest_PopHead_TestD0Ev
FN:83,_ZN36LinkedListTest_PopHeadEmptyList_TestC2Ev
FNDA:10,_ZN36LinkedListTest_PopHeadEmptyList_TestC2Ev
FN:83,_ZN36LinkedListTest_PopHeadEmptyList_TestD0Ev
FNDA:10,_ZN36LinkedListTest_PopHeadEmptyList_TestD0Ev
FN:83,_ZN36LinkedListTest_PopHeadEmptyList_TestD2Ev
FNDA:10,_ZN36LinkedListTest_PopHeadEmptyList_TestD2Ev
FN:83,_ZN36LinkedListTest_PopHeadEmptyList_Test8TestBodyEv
FNDA:10,_ZN36LinkedListTest_PopHeadEmptyList_Test8TestBodyEv
FN:93,_ZN27LinkedListTest_PopTail_TestD0Ev
FNDA:10,_ZN27LinkedListTest_PopTail_TestD0Ev
FN:93,_ZN27LinkedListTest_PopTail_TestC2Ev
FNDA:10,_ZN27LinkedListTest_PopTail_TestC2Ev
FN:93,_ZN27LinkedListTest_PopTail_TestD2Ev
FNDA:10,_ZN27LinkedListTest_PopTail_TestD2Ev
FN:93,_ZN27LinkedListTest_PopTail_Test8TestBodyEv
FNDA:10,_ZN27LinkedListTest_PopTail_Test8TestBodyEv
FN:105,_ZN36LinkedListTest_PopTailEmptyList_TestC2Ev
FNDA:10,_ZN36LinkedListTest_PopTailEmptyList_TestC2Ev
FN:105,_ZN36LinkedListTest_PopTailEmptyList_TestD2Ev
FNDA:10,_ZN36LinkedListTest_PopTailEmptyList_TestD2Ev
FN:105,_ZN36LinkedListTest_PopTailEmptyList_Test8TestBodyEv
FNDA:10,_ZN36LinkedListTest_PopTailEmptyList_Test8TestBodyEv
FN:105,_ZN36LinkedListTest_PopTailEmptyList_TestD0Ev
FNDA:10,_ZN36LinkedListTest_PopTailEmptyList_TestD0Ev
FN:114,_ZN37LinkedListTest_PopTailSingleNode_TestC2Ev
FNDA:10,_ZN37LinkedListTest_PopTailSingleNode_TestC2Ev
FN:114,_ZN37LinkedListTest_PopTailSingleNode_TestD0Ev
FNDA:10,_ZN37LinkedListTest_PopTailSingleNode_TestD0Ev
FN:114,_ZN37LinkedListTest_PopTailSingleNode_TestD2Ev
FNDA:10,_ZN37LinkedListTest_PopTailSingleNode_TestD2Ev
FN:114,_ZN37LinkedListTest_PopTailSingleNode_Test8TestBodyEv
FNDA:10,_ZN37LinkedListTest_PopTailSingleNode_Test8TestBodyEv
FN:124,_ZN29LinkedListTest_PopInHead_TestD2Ev
FNDA:10,_ZN29LinkedListTest_PopInHead_TestD2Ev
FN:124,_ZN29LinkedListTest_PopInHead_TestD0Ev
FNDA:10,_ZN29LinkedListTest_PopInHead_TestD0Ev
FN:124,_ZN29LinkedListTest_PopInHead_Test8TestBodyEv
FNDA:10,_ZN29LinkedListTest_PopInHead_Test8TestBodyEv
FN:124,_ZN29LinkedListTest_PopInHead_TestC2Ev
FNDA:10,_ZN29LinkedListTest_PopInHead_TestC2Ev
FN:140,_ZN36LinkedListTest_PopFromEmptyList_TestD2Ev
FNDA:10,_ZN36LinkedListTest_PopFromEmptyList_TestD2Ev
FN:140,_ZN36LinkedListTest_PopFromEmptyList_Test8TestBodyEv
FNDA:10,_ZN36LinkedListTest_PopFromEmptyList_Test8TestBodyEv
FN:140,_ZN36LinkedListTest_PopFromEmptyList_TestC2Ev
FNDA:10,_ZN36LinkedListTest_PopFromEmptyList_TestC2Ev
FN:140,_ZN36LinkedListTest_PopFromEmptyList_TestD0Ev
FNDA:10,_ZN36LinkedListTest_PopFromEmptyList_TestD0Ev
FN:147,_ZN35LinkedListTest_PopInvalidIndex_TestC2Ev
FNDA:10,_ZN35LinkedListTest_PopInvalidIndex_TestC2Ev
FN:147,_ZN35LinkedListTest_PopInvalidIndex_TestD0Ev
FNDA:10,_ZN35LinkedListTest_PopInvalidIndex_TestD0Ev
FN:147,_ZN35LinkedListTest_PopInvalidIndex_TestD2Ev
FNDA:10,_ZN35LinkedListTest_PopInvalidIndex_TestD2Ev
FN:147,_ZN35LinkedListTest_PopInvalidIndex_Test8TestBodyEv
FNDA:10,_ZN35LinkedListTest_PopInvalidIndex_Test8TestBodyEv
FN:154,_ZN38LinkedListTest_GetValueValidIndex_TestC2Ev
FNDA:10,_ZN38LinkedListTest_GetValueValidIndex_TestC2Ev
FN:154,_ZN38LinkedListTest_GetValueValidIndex_Test8TestBodyEv
FNDA:10,_ZN38LinkedListTest_GetValueValidIndex_Test8TestBodyEv
FN:154,_ZN38LinkedListTest_GetValueValidIndex_TestD2Ev
FNDA:10,_ZN38LinkedListTest_GetValueValidIndex_TestD2Ev
FN:154,_ZN38LinkedListTest_GetValueValidIndex_TestD0Ev
FNDA:10,_ZN38LinkedListTest_GetValueValidIndex_TestD0Ev
FN:164,_ZN43LinkedListTest_GetValueInvalidIndexMax_TestD2Ev
FNDA:10,_ZN43LinkedListTest_GetValueInvalidIndexMax_TestD2Ev
FN:164,_ZN43LinkedListTest_GetValueInvalidIndexMax_TestD0Ev
FNDA:10,_ZN43LinkedListTest_GetValueInvalidIndexMax_TestD0Ev
FN:164,_ZN43LinkedListTest_GetValueInvalidIndexMax_Test8TestBodyEv
FNDA:10,_ZN43LinkedListTest_GetValueInvalidIndexMax_Test8TestBodyEv
FN:164,_ZN43LinkedListTest_GetValueInvalidIndexMax_TestC2Ev
FNDA:10,_ZN43LinkedListTest_GetValueInvalidIndexMax_TestC2Ev
FN:169,_ZN40LinkedListTest_GetValueInvalidIndex_TestD0Ev
FNDA:10,_ZN40LinkedListTest_GetValueInvalidIndex_TestD0Ev
FN:169,_ZN40LinkedListTest_GetValueInvalidIndex_TestD2Ev
FNDA:10,_ZN40LinkedListTest_GetValueInvalidIndex_TestD2Ev
FN:169,_ZN40LinkedListTest_GetValueInvalidIndex_Test8TestBodyEv
FNDA:10,_ZN40LinkedListTest_GetValueInvalidIndex_Test8TestBodyEv
FN:169,_ZN40LinkedListTest_GetValueInvalidIndex_TestC2Ev
FNDA:10,_ZN40LinkedListTest_GetValueInvalidIndex_TestC2Ev
FN:173,_ZN41LinkedListTest_GetValueFromEmptyList_Test8TestBodyEv
FNDA:10,_ZN41LinkedListTest_GetValueFromEmptyList_Test8TestBodyEv
FN:173,_ZN41LinkedListTest_GetValueFromEmptyList_TestC2Ev
FNDA:10,_ZN41LinkedListTest_GetValueFromEmptyList_TestC2Ev
FN:173,_ZN41LinkedListTest_GetValueFromEmptyList_TestD2Ev
FNDA:10,_ZN41LinkedListTest_GetValueFromEmptyList_TestD2Ev
FN:173,_ZN41LinkedListTest_GetValueFromEmptyList_TestD0Ev
FNDA:10,_ZN41LinkedListTest_GetValueFromEmptyList_TestD0Ev
FN:178,_ZN41LinkedListTest_SearchExistingElement_TestD2Ev
FNDA:10,_ZN41LinkedListTest_SearchExistingElement_TestD2Ev
FN:178,_ZN41LinkedListTest_SearchExistingElement_TestC2Ev
FNDA:10,_ZN41LinkedListTest_SearchExistingElement_TestC2Ev
FN:178,_ZN41LinkedListTest_SearchExistingElement_Test8TestBodyEv
FNDA:10,_ZN41LinkedListTest_SearchExistingElement_Test8TestBodyEv
FN:178,_ZN41LinkedListTest_SearchExistingElement_TestD0Ev
FNDA:10,_ZN41LinkedListTest_SearchExistingElement_TestD0Ev
FN:186,_ZN44LinkedListTest_SearchNonExistingElement_TestD2Ev
FNDA:10,_ZN44LinkedListTest_SearchNonExistingElement_TestD2Ev
FN:186,_ZN44LinkedListTest_SearchNonExistingElement_TestD0Ev
FNDA:10,_ZN44LinkedListTest_SearchNonExistingElement_TestD0Ev
FN:186,_ZN44LinkedListTest_SearchNonExistingElement_Test8TestBodyEv
FNDA:10,_ZN44LinkedListTest_SearchNonExistingElement_Test8TestBodyEv
FN:186,_ZN44LinkedListTest_SearchNonExistingElement_TestC2Ev
FNDA:10,_ZN44LinkedListTest_SearchNonExistingElement_TestC2Ev
FN:195,_ZN37LinkedListTest_SearchInEmptyList_TestD0Ev
FNDA:10,_ZN37LinkedListTest_SearchInEmptyList_TestD0Ev
FN:195,_ZN37LinkedListTest_SearchInEmptyList_TestD2Ev
FNDA:10,_ZN37LinkedListTest_SearchInEmptyList_TestD2Ev
FN:195,_ZN37LinkedListTest_SearchInEmptyList_Test8TestBodyEv
FNDA:10,_ZN37LinkedListTest_SearchInEmptyList_Test8TestBodyEv
FN:195,_ZN37LinkedListTest_SearchInEmptyList_TestC2Ev
FNDA:10,_ZN37LinkedListTest_SearchInEmptyList_TestC2Ev
FN:203,_ZN36LinkedListTest_DisplayEmptyList_TestD0Ev
FNDA:10,_ZN36LinkedListTest_DisplayEmptyList_TestD0Ev
FN:203,_ZN36LinkedListTest_DisplayEmptyList_Test8TestBodyEv
FNDA:10,_ZN36LinkedListTest_DisplayEmptyList_Test8TestBodyEv
FN:203,_ZN36LinkedListTest_DisplayEmptyList_TestC2Ev
FNDA:10,_ZN36LinkedListTest_DisplayEmptyList_TestC2Ev
FN:203,_ZN36LinkedListTest_DisplayEmptyList_TestD2Ev
FNDA:10,_ZN36LinkedListTest_DisplayEmptyList_TestD2Ev
FN:213,_ZN32LinkedListTest_PopValueHead_TestD0Ev
FNDA:10,_ZN32LinkedListTest_PopValueHead_TestD0Ev
FN:213,_ZN32LinkedListTest_PopValueHead_TestC2Ev
FNDA:10,_ZN32LinkedListTest_PopValueHead_TestC2Ev
FN:213,_ZN32LinkedListTest_PopValueHead_Test8TestBodyEv
FNDA:10,_ZN32LinkedListTest_PopValueHead_Test8TestBodyEv
FN:213,_ZN32LinkedListTest_PopValueHead_TestD2Ev
FNDA:10,_ZN32LinkedListTest_PopValueHead_TestD2Ev
FN:226,_ZN32LinkedListTest_PopValueTail_Test8TestBodyEv
FNDA:10,_ZN32LinkedListTest_PopValueTail_Test8TestBodyEv
FN:226,_ZN32LinkedListTest_PopValueTail_TestC2Ev
FNDA:10,_ZN32LinkedListTest_PopValueTail_TestC2Ev
FN:226,_ZN32LinkedListTest_PopValueTail_TestD2Ev
FNDA:10,_ZN32LinkedListTest_PopValueTail_TestD2Ev
FN:226,_ZN32LinkedListTest_PopValueTail_TestD0Ev
FNDA:10,_ZN32LinkedListTest_PopValueTail_TestD0Ev
FN:238,_ZN34LinkedListTest_PopValueInList_Test8TestBodyEv
FNDA:10,_ZN34LinkedListTest_PopValueInList_Test8TestBodyEv
FN:238,_ZN34LinkedListTest_PopValueInList_TestC2Ev
FNDA:10,_ZN34LinkedListTest_PopValueInList_TestC2Ev
FN:238,_ZN34LinkedListTest_PopValueInList_TestD2Ev
FNDA:10,_ZN34LinkedListTest_PopValueInList_TestD2Ev
FN:238,_ZN34LinkedListTest_PopValueInList_TestD0Ev
FNDA:10,_ZN34LinkedListTest_PopValueInList_TestD0Ev
FN:251,_ZN41LinkedListTest_PopValueFromEmptyList_TestD2Ev
FNDA:10,_ZN41LinkedListTest_PopValueFromEmptyList_TestD2Ev
FN:251,_ZN41LinkedListTest_PopValueFromEmptyList_Test8TestBodyEv
FNDA:10,_ZN41LinkedListTest_PopValueFromEmptyList_Test8TestBodyEv
FN:251,_ZN41LinkedListTest_PopValueFromEmptyList_TestD0Ev
FNDA:10,_ZN41LinkedListTest_PopValueFromEmptyList_TestD0Ev
FN:251,_ZN41LinkedListTest_PopValueFromEmptyList_TestC2Ev
FNDA:10,_ZN41LinkedListTest_PopValueFromEmptyList_TestC2Ev
FN:259,main
FNDA:10,main
DA:14,240
DA:16,240
DA:19,10
DA:19,10
DA:19,10
DA:19,10
DA:20,10
DA:21,10
DA:22,10
DA:23,10
DA:24,10
DA:25,10
DA:27,20
DA:28,10
DA:30,10
DA:30,10
DA:30,10
DA:30,10
DA:31,10
DA:32,10
DA:33,10
DA:34,10
DA:35,10
DA:36,10
DA:38,20
DA:39,10
DA:41,10
DA:41,10
DA:41,10
DA:41,10
DA:42,10
DA:43,10
DA:44,10
DA:45,10
DA:46,10
DA:47,10
DA:48,10
DA:49,10
DA:50,10
DA:51,10
DA:53,20
DA:54,10
DA:56,10
DA:56,10
DA:56,10
DA:56,10
DA:58,10
DA:60,10
DA:61,20
DA:64,10
DA:66,10
DA:67,10
DA:68,20
DA:69,10
DA:71,10
DA:71,10
DA:71,10
DA:71,10
DA:72,10
DA:73,10
DA:74,10
DA:75,10
DA:76,10
DA:77,10
DA:78,10
DA:80,20
DA:81,10
DA:83,10
DA:83,10
DA:83,10
DA:83,10
DA:84,10
DA:85,10
DA:87,10
DA:89,10
DA:90,20
DA:91,10
DA:93,10
DA:93,10
DA:93,10
DA:93,10
DA:94,10
DA:95,10
DA:96,10
DA:97,10
DA:98,10
DA:99,10
DA:100,10
DA:102,20
DA:103,10
DA:105,10
DA:105,10
DA:105,10
DA:105,10
DA:106,10
DA:107,10
DA:108,10
DA:109,10
DA:110,10
DA:111,20
DA:112,10
DA:114,10
DA:114,10
DA:114,10
DA:114,10
DA:115,10
DA:116,10
DA:117,10
DA:118,10
DA:119,10
DA:120,10
DA:121,20
DA:122,10
DA:124,10
DA:124,10
DA:124,10
DA:124,10
DA:125,10
DA:126,10
DA:127,10
DA:128,10
DA:130,10
DA:131,10
DA:132,10
DA:134,10
DA:135,10
DA:136,20
DA:137,10
DA:138,10
DA:140,10
DA:140,10
DA:140,10
DA:140,10
DA:141,10
DA:142,10
DA:143,10
DA:144,10
DA:145,10
DA:147,10
DA:147,10
DA:147,10
DA:147,10
DA:148,10
DA:149,10
DA:150,10
DA:151,10
DA:152,10
DA:154,10
DA:154,10
DA:154,10
DA:154,10
DA:155,10
DA:156,10
DA:157,10
DA:159,10
DA:160,10
DA:161,10
DA:162,10
DA:164,10
DA:164,10
DA:164,10
DA:164,10
DA:165,10
DA:166,10
DA:167,10
DA:169,10
DA:169,10
DA:169,10
DA:169,10
DA:170,10
DA:171,10
DA:173,10
DA:173,10
DA:173,10
DA:173,10
DA:174,10
DA:175,10
DA:176,10
DA:178,10
DA:178,10
DA:178,10
DA:178,10
DA:179,10
DA:180,10
DA:181,10
DA:182,10
DA:183,10
DA:184,10
DA:186,10
DA:186,10
DA:186,10
DA:186,10
DA:187,10
DA:188,10
DA:189,10
DA:190,10
DA:191,10
DA:192,10
DA:193,10
DA:195,10
DA:195,10
DA:195,10
DA:195,10
DA:196,10
DA:197,10
DA:198,10
DA:199,10
DA:200,10
DA:201,10
DA:203,10
DA:203,10
DA:203,10
DA:203,10
DA:204,10
DA:205,10
DA:207,10
DA:209,10
DA:210,20
DA:211,10
DA:213,10
DA:213,10
DA:213,10
DA:213,10
DA:214,10
DA:215,10
DA:216,10
DA:217,10
DA:219,10
DA:220,10
DA:221,10
DA:222,10
DA:223,20
DA:224,10
DA:226,10
DA:226,10
DA:226,10
DA:226,10
DA:227,10
DA:228,10
DA:229,10
DA:231,10
DA:232,10
DA:233,10
DA:234,10
DA:235,20
DA:236,10
DA:238,10
DA:238,10
DA:238,10
DA:238,10
DA:239,10
DA:240,10
DA:241,10
DA:242,10
DA:244,10
DA:245,10
DA:246,10
DA:247,10
DA:248,20
DA:249,10
DA:251,10
DA:251,10
DA:251,10
DA:251,10
DA:252,10
DA:253,10
DA:254,10
DA:255,10
DA:256,10
DA:257,10
DA:259,10
DA:260,10
DA:261,10
end_of_record
SF:/home/businka/second_semester_programming/laba3/List.hpp
FN:9,_ZN10LinkedListIiEC2Ev
FNDA:270,_ZN10LinkedListIiEC2Ev
FN:10,_ZN10LinkedListIiED2Ev
FNDA:270,_ZN10LinkedListIiED2Ev
FN:17,_ZN10LinkedListIiE10push_frontERKi
FNDA:20,_ZN10LinkedListIiE10push_frontERKi
FN:28,_ZN10LinkedListIiE9push_backERKi
FNDA:280,_ZN10LinkedListIiE9push_backERKi
FN:39,_ZN10LinkedListIiE6insertEiRKi
FNDA:60,_ZN10LinkedListIiE6insertEiRKi
FN:77,_ZN10LinkedListIiE8pop_headEv
FNDA:70,_ZN10LinkedListIiE8pop_headEv
FN:87,_ZN10LinkedListIiE8pop_tailEv
FNDA:50,_ZN10LinkedListIiE8pop_tailEv
FN:100,_ZN10LinkedListIiE3popEi
FNDA:50,_ZN10LinkedListIiE3popEi
FN:127,_ZN10LinkedListIiE9pop_valueEi
FNDA:40,_ZN10LinkedListIiE9pop_valueEi
FN:157,_ZNK10LinkedListIiE9get_valueEi
FNDA:80,_ZNK10LinkedListIiE9get_valueEi
FN:179,_ZN10LinkedListIiE6searchEi
FNDA:30,_ZN10LinkedListIiE6searchEi
FN:192,_ZN10LinkedListIiE7displayEv
FNDA:110,_ZN10LinkedListIiE7displayEv
DA:9,270
DA:10,270
DA:11,530
DA:12,260
DA:13,260
DA:14,260
DA:16,270
DA:17,20
DA:18,20
DA:19,20
DA:20,10
DA:21,10
DA:23,20
DA:24,10
DA:25,10
DA:27,20
DA:28,280
DA:29,280
DA:30,280
DA:31,150
DA:32,150
DA:34,280
DA:35,130
DA:36,130
DA:38,280
DA:39,60
DA:40,60
DA:41,10
DA:42,10
DA:45,50
DA:47,50
DA:48,20
DA:49,20
DA:51,20
DA:52,10
DA:55,30
DA:56,30
DA:58,80
DA:59,50
DA:60,50
DA:63,30
DA:64,10
DA:65,10
DA:66,10
DA:69,20
DA:70,20
DA:72,20
DA:73,10
DA:77,70
DA:78,70
DA:79,30
DA:82,40
DA:83,40
DA:84,40
DA:86,70
DA:87,50
DA:88,50
DA:89,10
DA:90,50
DA:91,20
DA:93,30
DA:94,30
DA:95,30
DA:96,30
DA:97,30
DA:99,50
DA:100,50
DA:101,50
DA:102,10
DA:103,10
DA:105,40
DA:106,40
DA:107,40
DA:108,20
DA:109,20
DA:110,20
DA:111,10
DA:112,10
DA:114,20
DA:115,10
DA:116,10
DA:118,10
DA:119,10
DA:120,10
DA:122,0
DA:123,0
DA:124,0
DA:127,40
DA:128,40
DA:129,10
DA:130,10
DA:132,30
DA:133,10
DA:134,10
DA:136,20
DA:137,10
DA:138,10
DA:140,10
DA:141,10
DA:143,20
DA:144,10
DA:145,10
DA:148,10
DA:149,0
DA:150,0
DA:153,10
DA:154,10
DA:157,80
DA:158,80
DA:159,10
DA:162,70
DA:163,10
DA:166,60
DA:167,60
DA:169,100
DA:170,90
DA:171,50
DA:173,40
DA:174,40
DA:177,10
DA:179,30
DA:180,30
DA:181,30
DA:182,10
DA:183,10
DA:185,30
DA:186,10
DA:188,20
DA:189,10
DA:190,10
DA:192,110
DA:193,110
DA:194,30
DA:195,30
DA:197,80
DA:198,250
DA:199,170
DA:200,170
DA:202,80
end_of_record
TN:
SF:/home/businka/second_semester_programming/laba3/array_testing.cpp
FN:10,_ZN23ArrayTest_PushBack_TestC2Ev
FNDA:82,_ZN23ArrayTest_PushBack_TestC2Ev
FN:10,_ZN23ArrayTest_PushBack_Test8TestBodyEv
FNDA:82,_ZN23ArrayTest_PushBack_Test8TestBodyEv
FN:10,_ZN23ArrayTest_PushBack_TestD2Ev
FNDA:82,_ZN23ArrayTest_PushBack_TestD2Ev
FN:10,_ZN23ArrayTest_PushBack_TestD0Ev
FNDA:82,_ZN23ArrayTest_PushBack_TestD0Ev
FN:18,_ZN24ArrayTest_PushFront_TestC2Ev
FNDA:82,_ZN24ArrayTest_PushFront_TestC2Ev
FN:18,_ZN24ArrayTest_PushFront_Test8TestBodyEv
FNDA:82,_ZN24ArrayTest_PushFront_Test8TestBodyEv
FN:18,_ZN24ArrayTest_PushFront_TestD2Ev
FNDA:82,_ZN24ArrayTest_PushFront_TestD2Ev
FN:18,_ZN24ArrayTest_PushFront_TestD0Ev
FNDA:82,_ZN24ArrayTest_PushFront_TestD0Ev
FN:28,_ZN21ArrayTest_PushIn_TestC2Ev
FNDA:82,_ZN21ArrayTest_PushIn_TestC2Ev
FN:28,_ZN21ArrayTest_PushIn_Test8TestBodyEv
FNDA:82,_ZN21ArrayTest_PushIn_Test8TestBodyEv
FN:28,_ZN21ArrayTest_PushIn_TestD2Ev
FNDA:82,_ZN21ArrayTest_PushIn_TestD2Ev
FN:28,_ZN21ArrayTest_PushIn_TestD0Ev
FNDA:82,_ZN21ArrayTest_PushIn_TestD0Ev
FN:37,_ZN23ArrayTest_PopFront_TestC2Ev
FNDA:82,_ZN23ArrayTest_PopFront_TestC2Ev
FN:37,_ZN23ArrayTest_PopFront_Test8TestBodyEv
FNDA:82,_ZN23ArrayTest_PopFront_Test8TestBodyEv
FN:37,_ZN23ArrayTest_PopFront_TestD2Ev
FNDA:82,_ZN23ArrayTest_PopFront_TestD2Ev
FN:37,_ZN23ArrayTest_PopFront_TestD0Ev
FNDA:82,_ZN23ArrayTest_PopFront_TestD0Ev
FN:46,_ZN22ArrayTest_PopBack_TestD0Ev
FNDA:82,_ZN22ArrayTest_PopBack_TestD0Ev
FN:46,_ZN22ArrayTest_PopBack_Test8TestBodyEv
FNDA:82,_ZN22ArrayTest_PopBack_Test8TestBodyEv
FN:46,_ZN22ArrayTest_PopBack_TestD2Ev
FNDA:82,_ZN22ArrayTest_PopBack_TestD2Ev
FN:46,_ZN22ArrayTest_PopBack_TestC2Ev
FNDA:82,_ZN22ArrayTest_PopBack_TestC2Ev
FN:55,_ZN20ArrayTest_PopIn_TestD0Ev
FNDA:82,_ZN20ArrayTest_PopIn_TestD0Ev
FN:55,_ZN20ArrayTest_PopIn_TestC2Ev
FNDA:82,_ZN20ArrayTest_PopIn_TestC2Ev
FN:55,_ZN20ArrayTest_PopIn_TestD2Ev
FNDA:82,_ZN20ArrayTest_PopIn_TestD2Ev
FN:55,_ZN20ArrayTest_PopIn_Test8TestBodyEv
FNDA:82,_ZN20ArrayTest_PopIn_Test8TestBodyEv
FN:65,_ZN21ArrayTest_Search_TestD2Ev
FNDA:82,_ZN21ArrayTest_Search_TestD2Ev
FN:65,_ZN21ArrayTest_Search_TestD0Ev
FNDA:82,_ZN21ArrayTest_Search_TestD0Ev
FN:65,_ZN21ArrayTest_Search_TestC2Ev
FNDA:82,_ZN21ArrayTest_Search_TestC2Ev
FN:65,_ZN21ArrayTest_Search_Test8TestBodyEv
FNDA:82,_ZN21ArrayTest_Search_Test8TestBodyEv
FN:74,_ZN25ArrayTest_SetValueAt_TestD0Ev
FNDA:82,_ZN25ArrayTest_SetValueAt_TestD0Ev
FN:74,_ZN25ArrayTest_SetValueAt_TestD2Ev
FNDA:82,_ZN25ArrayTest_SetValueAt_TestD2Ev
FN:74,_ZN25ArrayTest_SetValueAt_Test8TestBodyEv
FNDA:82,_ZN25ArrayTest_SetValueAt_Test8TestBodyEv
FN:74,_ZN25ArrayTest_SetValueAt_TestC2Ev
FNDA:82,_ZN25ArrayTest_SetValueAt_TestC2Ev
FN:82,_ZN32ArrayTest_InvalidIndexPopIn_Test8TestBodyEv
FNDA:82,_ZN32ArrayTest_InvalidIndexPopIn_Test8TestBodyEv
FN:82,_ZN32ArrayTest_InvalidIndexPopIn_TestC2Ev
FNDA:82,_ZN32ArrayTest_InvalidIndexPopIn_TestC2Ev
FN:82,_ZN32ArrayTest_InvalidIndexPopIn_TestD2Ev
FNDA:82,_ZN32ArrayTest_InvalidIndexPopIn_TestD2Ev
FN:82,_ZN32ArrayTest_InvalidIndexPopIn_TestD0Ev
FNDA:82,_ZN32ArrayTest_InvalidIndexPopIn_TestD0Ev
FN:89,_ZN37ArrayTest_InvalidIndexSetValueAt_TestC2Ev
FNDA:82,_ZN37ArrayTest_InvalidIndexSetValueAt_TestC2Ev
FN:89,_ZN37ArrayTest_InvalidIndexSetValueAt_Test8TestBodyEv
FNDA:82,_ZN37ArrayTest_InvalidIndexSetValueAt_Test8TestBodyEv
FN:89,_ZN37ArrayTest_InvalidIndexSetValueAt_TestD0Ev
FNDA:82,_ZN37ArrayTest_InvalidIndexSetValueAt_TestD0Ev
FN:89,_ZN37ArrayTest_InvalidIndexSetValueAt_TestD2Ev
FNDA:82,_ZN37ArrayTest_InvalidIndexSetValueAt_TestD2Ev
FN:96,_ZN28ArrayTest_PopFrontEmpty_TestD2Ev
FNDA:82,_ZN28ArrayTest_PopFrontEmpty_TestD2Ev
FN:96,_ZN28ArrayTest_PopFrontEmpty_TestC2Ev
FNDA:82,_ZN28ArrayTest_PopFrontEmpty_TestC2Ev
FN:96,_ZN28ArrayTest_PopFrontEmpty_TestD0Ev
FNDA:82,_ZN28ArrayTest_PopFrontEmpty_TestD0Ev
FN:96,_ZN28ArrayTest_PopFrontEmpty_Test8TestBodyEv
FNDA:82,_ZN28ArrayTest_PopFrontEmpty_Test8TestBodyEv
FN:102,_ZN27ArrayTest_PopBackEmpty_TestD0Ev
FNDA:82,_ZN27ArrayTest_PopBackEmpty_TestD0Ev
FN:102,_ZN27ArrayTest_PopBackEmpty_TestC2Ev
FNDA:82,_ZN27ArrayTest_PopBackEmpty_TestC2Ev
FN:102,_ZN27ArrayTest_PopBackEmpty_Test8TestBodyEv
FNDA:82,_ZN27ArrayTest_PopBackEmpty_Test8TestBodyEv
FN:102,_ZN27ArrayTest_PopBackEmpty_TestD2Ev
FNDA:82,_ZN27ArrayTest_PopBackEmpty_TestD2Ev
FN:108,_ZN38ArrayTest_SearchIndexInvalidIndex_TestD0Ev
FNDA:82,_ZN38ArrayTest_SearchIndexInvalidIndex_TestD0Ev
FN:108,_ZN38ArrayTest_SearchIndexInvalidIndex_TestC2Ev
FNDA:82,_ZN38ArrayTest_SearchIndexInvalidIndex_TestC2Ev
FN:108,_ZN38ArrayTest_SearchIndexInvalidIndex_TestD2Ev
FNDA:82,_ZN38ArrayTest_SearchIndexInvalidIndex_TestD2Ev
FN:108,_ZN38ArrayTest_SearchIndexInvalidIndex_Test8TestBodyEv
FNDA:82,_ZN38ArrayTest_SearchIndexInvalidIndex_Test8TestBodyEv
FN:122,_ZN37ArrayTest_SetValueAtInvalidIndex_TestC2Ev
FNDA:82,_ZN37ArrayTest_SetValueAtInvalidIndex_TestC2Ev
FN:122,_ZN37ArrayTest_SetValueAtInvalidIndex_TestD0Ev
FNDA:82,_ZN37ArrayTest_SetValueAtInvalidIndex_TestD0Ev
FN:122,_ZN37ArrayTest_SetValueAtInvalidIndex_Test8TestBodyEv
FNDA:82,_ZN37ArrayTest_SetValueAtInvalidIndex_Test8TestBodyEv
FN:122,_ZN37ArrayTest_SetValueAtInvalidIndex_TestD2Ev
FNDA:82,_ZN37ArrayTest_SetValueAtInvalidIndex_TestD2Ev
FN:135,_ZN37ArrayTest_GetValueAtInvalidIndex_TestD0Ev
FNDA:82,_ZN37ArrayTest_GetValueAtInvalidIndex_TestD0Ev
FN:135,_ZN37ArrayTest_GetValueAtInvalidIndex_TestC2Ev
FNDA:82,_ZN37ArrayTest_GetValueAtInvalidIndex_TestC2Ev
FN:135,_ZN37ArrayTest_GetValueAtInvalidIndex_TestD2Ev
FNDA:82,_ZN37ArrayTest_GetValueAtInvalidIndex_TestD2Ev
FN:135,_ZN37ArrayTest_GetValueAtInvalidIndex_Test8TestBodyEv
FNDA:82,_ZN37ArrayTest_GetValueAtInvalidIndex_Test8TestBodyEv
FN:151,_ZN27ArrayTest_DisplayEmpty_TestD0Ev
FNDA:82,_ZN27ArrayTest_DisplayEmpty_TestD0Ev
FN:151,_ZN27ArrayTest_DisplayEmpty_Test8TestBodyEv
FNDA:82,_ZN27ArrayTest_DisplayEmpty_Test8TestBodyEv
FN:151,_ZN27ArrayTest_DisplayEmpty_TestC2Ev
FNDA:82,_ZN27ArrayTest_DisplayEmpty_TestC2Ev
FN:151,_ZN27ArrayTest_DisplayEmpty_TestD2Ev
FNDA:82,_ZN27ArrayTest_DisplayEmpty_TestD2Ev
FN:159,_ZN30ArrayTest_DisplayNonEmpty_TestC2Ev
FNDA:82,_ZN30ArrayTest_DisplayNonEmpty_TestC2Ev
FN:159,_ZN30ArrayTest_DisplayNonEmpty_Test8TestBodyEv
FNDA:82,_ZN30ArrayTest_DisplayNonEmpty_Test8TestBodyEv
FN:159,_ZN30ArrayTest_DisplayNonEmpty_TestD2Ev
FNDA:82,_ZN30ArrayTest_DisplayNonEmpty_TestD2Ev
FN:159,_ZN30ArrayTest_DisplayNonEmpty_TestD0Ev
FNDA:82,_ZN30ArrayTest_DisplayNonEmpty_TestD0Ev
FN:170,main
FNDA:82,main
DA:10,82
DA:10,82
DA:10,82
DA:10,82
DA:11,82
DA:12,82
DA:13,82
DA:14,82
DA:15,82
DA:16,82
DA:18,82
DA:18,82
DA:18,82
DA:18,82
DA:19,82
DA:20,82
DA:21,82
DA:22,82
DA:23,82
DA:24,82
DA:25,82
DA:26,82
DA:28,82
DA:28,82
DA:28,82
DA:28,82
DA:29,82
DA:30,82
DA:31,82
DA:32,82
DA:33,82
DA:34,82
DA:35,82
DA:37,82
DA:37,82
DA:37,82
DA:37,82
DA:38,82
DA:39,82
DA:40,82
DA:41,82
DA:42,82
DA:43,82
DA:44,82
DA:46,82
DA:46,82
DA:46,82
DA:46,82
DA:47,82
DA:48,82
DA:49,82
DA:50,82
DA:51,82
DA:52,82
DA:53,82
DA:55,82
DA:55,82
DA:55,82
DA:55,82
DA:56,82
DA:57,82
DA:58,82
DA:59,82
DA:60,82
DA:61,82
DA:62,82
DA:63,82
DA:65,82
DA:65,82
DA:65,82
DA:65,82
DA:66,82
DA:67,82
DA:68,82
DA:69,82
DA:70,82
DA:71,82
DA:72,82
DA:74,82
DA:74,82
DA:74,82
DA:74,82
DA:75,82
DA:76,82
DA:77,82
DA:78,82
DA:79,82
DA:80,82
DA:82,82
DA:82,82
DA:82,82
DA:82,82
DA:83,82
DA:84,82
DA:85,82
DA:86,82
DA:87,82
DA:89,82
DA:89,82
DA:89,82
DA:89,82
DA:90,82
DA:91,82
DA:92,82
DA:93,82
DA:94,82
DA:96,82
DA:96,82
DA:96,82
DA:96,82
DA:97,82
DA:98,82
DA:99,82
DA:100,82
DA:102,82
DA:102,82
DA:102,82
DA:102,82
DA:103,82
DA:104,82
DA:105,82
DA:106,82
DA:108,82
DA:108,82
DA:108,82
DA:108,82
DA:109,82
DA:110,82
DA:111,82
DA:112,82
DA:113,82
DA:115,82
DA:116,82
DA:118,82
DA:119,82
DA:120,82
DA:122,82
DA:122,82
DA:122,82
DA:122,82
DA:123,82
DA:124,82
DA:125,82
DA:127,82
DA:128,82
DA:129,82
DA:131,82
DA:132,82
DA:133,82
DA:135,82
DA:135,82
DA:135,82
DA:135,82
DA:136,82
DA:137,82
DA:138,82
DA:140,82
DA:141,82
DA:143,82
DA:145,82
DA:147,82
DA:148,82
DA:149,82
DA:151,82
DA:151,82
DA:151,82
DA:151,82
DA:152,82
DA:153,82
DA:154,82
DA:155,82
DA:156,82
DA:157,82
DA:159,82
DA:159,82
DA:159,82
DA:159,82
DA:160,82
DA:161,82
DA:162,82
DA:163,82
DA:164,82
DA:165,82
DA:166,82
DA:167,82
DA:168,82
DA:170,82
DA:171,82
DA:172,82
end_of_record
SF:/home/businka/second_semester_programming/laba3/Array.hpp
FN:7,_ZN5ArrayIiEC2Ev
FNDA:1394,_ZN5ArrayIiEC2Ev
FN:11,_ZN5ArrayIiED2Ev
FNDA:1394,_ZN5ArrayIiED2Ev
FN:15,_ZN5ArrayIiE10push_frontERKi
FNDA:246,_ZN5ArrayIiE10push_frontERKi
FN:36,_ZN5ArrayIiE9push_backERKi
FNDA:2296,_ZN5ArrayIiE9push_backERKi
FN:54,_ZN5ArrayIiE7push_inEiRKi
FNDA:82,_ZN5ArrayIiE7push_inEiRKi
FN:81,_ZN5ArrayIiE9pop_frontEv
FNDA:164,_ZN5ArrayIiE9pop_frontEv
FN:92,_ZN5ArrayIiE8pop_backEv
FNDA:164,_ZN5ArrayIiE8pop_backEv
FN:100,_ZN5ArrayIiE6pop_inEi
FNDA:164,_ZN5ArrayIiE6pop_inEi
FN:111,_ZN5ArrayIiE6searchERKi
FNDA:164,_ZN5ArrayIiE6searchERKi
FN:122,_ZN5ArrayIiE12search_indexEi
FNDA:328,_ZN5ArrayIiE12search_indexEi
FN:132,_ZN5ArrayIiE12set_value_atEii
FNDA:246,_ZN5ArrayIiE12set_value_atEii
FN:141,_ZN5ArrayIiE12get_value_atEi
FNDA:492,_ZN5ArrayIiE12get_value_atEi
FN:150,_ZN5ArrayIiE8get_sizeEv
FNDA:738,_ZN5ArrayIiE8get_sizeEv
FN:154,_ZN5ArrayIiE7displayEv
FNDA:164,_ZN5ArrayIiE7displayEv
DA:7,1394
DA:8,1394
DA:9,1394
DA:11,1394
DA:12,1394
DA:13,1394
DA:15,246
DA:16,246
DA:17,82
DA:18,82
DA:20,246
DA:21,164
DA:24,82
DA:25,82
DA:26,82
DA:28,492
DA:29,246
DA:32,246
DA:33,246
DA:34,246
DA:36,2296
DA:37,2296
DA:38,328
DA:39,328
DA:41,984
DA:42,656
DA:45,328
DA:46,328
DA:47,328
DA:50,2296
DA:51,2296
DA:52,2296
DA:54,82
DA:55,82
DA:56,0
DA:57,0
DA:60,82
DA:61,82
DA:62,82
DA:64,246
DA:65,164
DA:68,82
DA:69,82
DA:70,82
DA:73,164
DA:74,82
DA:77,82
DA:78,82
DA:81,164
DA:82,164
DA:83,82
DA:85,164
DA:86,82
DA:88,82
DA:90,164
DA:92,164
DA:93,164
DA:94,82
DA:96,82
DA:98,164
DA:100,164
DA:101,164
DA:102,82
DA:103,82
DA:105,164
DA:106,82
DA:108,82
DA:111,164
DA:112,492
DA:113,410
DA:114,82
DA:115,82
DA:118,82
DA:119,82
DA:122,328
DA:123,328
DA:124,246
DA:125,246
DA:127,82
DA:128,82
DA:132,246
DA:133,246
DA:134,164
DA:135,164
DA:138,82
DA:141,492
DA:142,492
DA:143,410
DA:145,82
DA:146,82
DA:150,738
DA:151,738
DA:154,164
DA:155,164
DA:156,82
DA:157,82
DA:159,328
DA:160,246
DA:162,82
end_of_record
TN:
SF:/home/businka/second_semester_programming/laba3/2list_testing.cpp
FN:14,_ZN14DoublyListTest5SetUpEv
FNDA:180,_ZN14DoublyListTest5SetUpEv
FN:19,_ZN29DoublyListTest_PushFront_TestC2Ev
FNDA:10,_ZN29DoublyListTest_PushFront_TestC2Ev
FN:19,_ZN29DoublyListTest_PushFront_Test8TestBodyEv
FNDA:10,_ZN29DoublyListTest_PushFront_Test8TestBodyEv
FN:19,_ZN29DoublyListTest_PushFront_TestD2Ev
FNDA:10,_ZN29DoublyListTest_PushFront_TestD2Ev
FN:19,_ZN29DoublyListTest_PushFront_TestD0Ev
FNDA:10,_ZN29DoublyListTest_PushFront_TestD0Ev
FN:30,_ZN28DoublyListTest_PushBack_TestC2Ev
FNDA:10,_ZN28DoublyListTest_PushBack_TestC2Ev
FN:30,_ZN28DoublyListTest_PushBack_Test8TestBodyEv
FNDA:10,_ZN28DoublyListTest_PushBack_Test8TestBodyEv
FN:30,_ZN28DoublyListTest_PushBack_TestD2Ev
FNDA:10,_ZN28DoublyListTest_PushBack_TestD2Ev
FN:30,_ZN28DoublyListTest_PushBack_TestD0Ev
FNDA:10,_ZN28DoublyListTest_PushBack_TestD0Ev
FN:41,_ZN36DoublyListTest_InsertValidIndex_TestC2Ev
FNDA:10,_ZN36DoublyListTest_InsertValidIndex_TestC2Ev
FN:41,_ZN36DoublyListTest_InsertValidIndex_Test8TestBodyEv
FNDA:10,_ZN36DoublyListTest_InsertValidIndex_Test8TestBodyEv
FN:41,_ZN36DoublyListTest_InsertValidIndex_TestD2Ev
FNDA:10,_ZN36DoublyListTest_InsertValidIndex_TestD2Ev
FN:41,_ZN36DoublyListTest_InsertValidIndex_TestD0Ev
FNDA:10,_ZN36DoublyListTest_InsertValidIndex_TestD0Ev
FN:56,_ZN38DoublyListTest_InsertInvalidIndex_TestD2Ev
FNDA:10,_ZN38DoublyListTest_InsertInvalidIndex_TestD2Ev
FN:56,_ZN38DoublyListTest_InsertInvalidIndex_TestC2Ev
FNDA:10,_ZN38DoublyListTest_InsertInvalidIndex_TestC2Ev
FN:56,_ZN38DoublyListTest_InsertInvalidIndex_TestD0Ev
FNDA:10,_ZN38DoublyListTest_InsertInvalidIndex_TestD0Ev
FN:56,_ZN38DoublyListTest_InsertInvalidIndex_Test8TestBodyEv
FNDA:10,_ZN38DoublyListTest_InsertInvalidIndex_Test8TestBodyEv
FN:71,_ZN41DoublyListTest_SearchExistingElement_TestD2Ev
FNDA:10,_ZN41DoublyListTest_SearchExistingElement_TestD2Ev
FN:71,_ZN41DoublyListTest_SearchExistingElement_TestD0Ev
FNDA:10,_ZN41DoublyListTest_SearchExistingElement_TestD0Ev
FN:71,_ZN41DoublyListTest_SearchExistingElement_Test8TestBodyEv
FNDA:10,_ZN41DoublyListTest_SearchExistingElement_Test8TestBodyEv
FN:71,_ZN41DoublyListTest_SearchExistingElement_TestC2Ev
FNDA:10,_ZN41DoublyListTest_SearchExistingElement_TestC2Ev
FN:79,_ZN44DoublyListTest_SearchNonExistingElement_TestD2Ev
FNDA:10,_ZN44DoublyListTest_SearchNonExistingElement_TestD2Ev
FN:79,_ZN44DoublyListTest_SearchNonExistingElement_TestD0Ev
FNDA:10,_ZN44DoublyListTest_SearchNonExistingElement_TestD0Ev
FN:79,_ZN44DoublyListTest_SearchNonExistingElement_TestC2Ev
FNDA:10,_ZN44DoublyListTest_SearchNonExistingElement_TestC2Ev
FN:79,_ZN44DoublyListTest_SearchNonExistingElement_Test8TestBodyEv
FNDA:10,_ZN44DoublyListTest_SearchNonExistingElement_Test8TestBodyEv
FN:88,_ZN27DoublyListTest_PopHead_TestD0Ev
FNDA:10,_ZN27DoublyListTest_PopHead_TestD0Ev
FN:88,_ZN27DoublyListTest_PopHead_Test8TestBodyEv
FNDA:10,_ZN27DoublyListTest_PopHead_Test8TestBodyEv
FN:88,_ZN27DoublyListTest_PopHead_TestD2Ev
FNDA:10,_ZN27DoublyListTest_PopHead_TestD2Ev
FN:88,_ZN27DoublyListTest_PopHead_TestC2Ev
FNDA:10,_ZN27DoublyListTest_PopHead_TestC2Ev
FN:102,_ZN27DoublyListTest_PopTail_TestC2Ev
FNDA:10,_ZN27DoublyListTest_PopTail_TestC2Ev
FN:102,_ZN27DoublyListTest_PopTail_TestD0Ev
FNDA:10,_ZN27DoublyListTest_PopTail_TestD0Ev
FN:102,_ZN27DoublyListTest_PopTail_TestD2Ev
FNDA:10,_ZN27DoublyListTest_PopTail_TestD2Ev
FN:102,_ZN27DoublyListTest_PopTail_Test8TestBodyEv
FNDA:10,_ZN27DoublyListTest_PopTail_Test8TestBodyEv
FN:116,_ZN29DoublyListTest_PopInHead_TestC2Ev
FNDA:10,_ZN29DoublyListTest_PopInHead_TestC2Ev
FN:116,_ZN29DoublyListTest_PopInHead_TestD0Ev
FNDA:10,_ZN29DoublyListTest_PopInHead_TestD0Ev
FN:116,_ZN29DoublyListTest_PopInHead_TestD2Ev
FNDA:10,_ZN29DoublyListTest_PopInHead_TestD2Ev
FN:116,_ZN29DoublyListTest_PopInHead_Test8TestBodyEv
FNDA:10,_ZN29DoublyListTest_PopInHead_Test8TestBodyEv
FN:132,_ZN36DoublyListTest_PopFromEmptyList_Test8TestBodyEv
FNDA:10,_ZN36DoublyListTest_PopFromEmptyList_Test8TestBodyEv
FN:132,_ZN36DoublyListTest_PopFromEmptyList_TestC2Ev
FNDA:10,_ZN36DoublyListTest_PopFromEmptyList_TestC2Ev
FN:132,_ZN36DoublyListTest_PopFromEmptyList_TestD2Ev
FNDA:10,_ZN36DoublyListTest_PopFromEmptyList_TestD2Ev
FN:132,_ZN36DoublyListTest_PopFromEmptyList_TestD0Ev
FNDA:10,_ZN36DoublyListTest_PopFromEmptyList_TestD0Ev
FN:139,_ZN38DoublyListTest_GetValueValidIndex_TestC2Ev
FNDA:10,_ZN38DoublyListTest_GetValueValidIndex_TestC2Ev
FN:139,_ZN38DoublyListTest_GetValueValidIndex_Test8TestBodyEv
FNDA:10,_ZN38DoublyListTest_GetValueValidIndex_Test8TestBodyEv
FN:139,_ZN38DoublyListTest_GetValueValidIndex_TestD0Ev
FNDA:10,_ZN38DoublyListTest_GetValueValidIndex_TestD0Ev
FN:139,_ZN38DoublyListTest_GetValueValidIndex_TestD2Ev
FNDA:10,_ZN38DoublyListTest_GetValueValidIndex_TestD2Ev
FN:149,_ZN43DoublyListTest_GetValueInvalidIndexMax_TestC2Ev
FNDA:10,_ZN43DoublyListTest_GetValueInvalidIndexMax_TestC2Ev
FN:149,_ZN43DoublyListTest_GetValueInvalidIndexMax_TestD0Ev
FNDA:10,_ZN43DoublyListTest_GetValueInvalidIndexMax_TestD0Ev
FN:149,_ZN43DoublyListTest_GetValueInvalidIndexMax_TestD2Ev
FNDA:10,_ZN43DoublyListTest_GetValueInvalidIndexMax_TestD2Ev
FN:149,_ZN43DoublyListTest_GetValueInvalidIndexMax_Test8TestBodyEv
FNDA:10,_ZN43DoublyListTest_GetValueInvalidIndexMax_Test8TestBodyEv
FN:154,_ZN40DoublyListTest_GetValueInvalidIndex_TestD2Ev
FNDA:10,_ZN40DoublyListTest_GetValueInvalidIndex_TestD2Ev
FN:154,_ZN40DoublyListTest_GetValueInvalidIndex_TestC2Ev
FNDA:10,_ZN40DoublyListTest_GetValueInvalidIndex_TestC2Ev
FN:154,_ZN40DoublyListTest_GetValueInvalidIndex_TestD0Ev
FNDA:10,_ZN40DoublyListTest_GetValueInvalidIndex_TestD0Ev
FN:154,_ZN40DoublyListTest_GetValueInvalidIndex_Test8TestBodyEv
FNDA:10,_ZN40DoublyListTest_GetValueInvalidIndex_Test8TestBodyEv
FN:158,_ZN41DoublyListTest_GetValueFromEmptyList_TestD0Ev
FNDA:10,_ZN41DoublyListTest_GetValueFromEmptyList_TestD0Ev
FN:158,_ZN41DoublyListTest_GetValueFromEmptyList_TestC2Ev
FNDA:10,_ZN41DoublyListTest_GetValueFromEmptyList_TestC2Ev
FN:158,_ZN41DoublyListTest_GetValueFromEmptyList_Test8TestBodyEv
FNDA:10,_ZN41DoublyListTest_GetValueFromEmptyList_Test8TestBodyEv
FN:158,_ZN41DoublyListTest_GetValueFromEmptyList_TestD2Ev
FNDA:10,_ZN41DoublyListTest_GetValueFromEmptyList_TestD2Ev
FN:163,_ZN32DoublyListTest_PopValueHead_Test8TestBodyEv
FNDA:10,_ZN32DoublyListTest_PopValueHead_Test8TestBodyEv
FN:163,_ZN32DoublyListTest_PopValueHead_TestD0Ev
FNDA:10,_ZN32DoublyListTest_PopValueHead_TestD0Ev
FN:163,_ZN32DoublyListTest_PopValueHead_TestD2Ev
FNDA:10,_ZN32DoublyListTest_PopValueHead_TestD2Ev
FN:163,_ZN32DoublyListTest_PopValueHead_TestC2Ev
FNDA:10,_ZN32DoublyListTest_PopValueHead_TestC2Ev
FN:176,_ZN32DoublyListTest_PopValueTail_TestD2Ev
FNDA:10,_ZN32DoublyListTest_PopValueTail_TestD2Ev
FN:176,_ZN32DoublyListTest_PopValueTail_TestC2Ev
FNDA:10,_ZN32DoublyListTest_PopValueTail_TestC2Ev
FN:176,_ZN32DoublyListTest_PopValueTail_TestD0Ev
FNDA:10,_ZN32DoublyListTest_PopValueTail_TestD0Ev
FN:176,_ZN32DoublyListTest_PopValueTail_Test8TestBodyEv
FNDA:10,_ZN32DoublyListTest_PopValueTail_Test8TestBodyEv
FN:188,_ZN34DoublyListTest_PopValueInList_TestD0Ev
FNDA:10,_ZN34DoublyListTest_PopValueInList_TestD0Ev
FN:188,_ZN34DoublyListTest_PopValueInList_Test8TestBodyEv
FNDA:10,_ZN34DoublyListTest_PopValueInList_Test8TestBodyEv
FN:188,_ZN34DoublyListTest_PopValueInList_TestD2Ev
FNDA:10,_ZN34DoublyListTest_PopValueInList_TestD2Ev
FN:188,_ZN34DoublyListTest_PopValueInList_TestC2Ev
FNDA:10,_ZN34DoublyListTest_PopValueInList_TestC2Ev
FN:201,_ZN41DoublyListTest_PopValueFromEmptyList_TestC2Ev
FNDA:10,_ZN41DoublyListTest_PopValueFromEmptyList_TestC2Ev
FN:201,_ZN41DoublyListTest_PopValueFromEmptyList_TestD0Ev
FNDA:10,_ZN41DoublyListTest_PopValueFromEmptyList_TestD0Ev
FN:201,_ZN41DoublyListTest_PopValueFromEmptyList_TestD2Ev
FNDA:10,_ZN41DoublyListTest_PopValueFromEmptyList_TestD2Ev
FN:201,_ZN41DoublyListTest_PopValueFromEmptyList_Test8TestBodyEv
FNDA:10,_ZN41DoublyListTest_PopValueFromEmptyList_Test8TestBodyEv
FN:209,main
FNDA:10,main
DA:14,180
DA:16,180
DA:19,10
DA:19,10
DA:19,10
DA:19,10
DA:20,10
DA:21,10
DA:22,10
DA:23,10
DA:24,10
DA:25,10
DA:27,20
DA:28,10
DA:30,10
DA:30,10
DA:30,10
DA:30,10
DA:31,10
DA:32,10
DA:33,10
DA:34,10
DA:35,10
DA:36,10
DA:38,20
DA:39,10
DA:41,10
DA:41,10
DA:41,10
DA:41,10
DA:42,10
DA:43,10
DA:44,10
DA:45,10
DA:46,10
DA:47,10
DA:48,10
DA:49,10
DA:50,10
DA:51,10
DA:53,20
DA:54,10
DA:56,10
DA:56,10
DA:56,10
DA:56,10
DA:58,10
DA:60,10
DA:61,20
DA:64,10
DA:66,10
DA:67,10
DA:68,20
DA:69,10
DA:71,10
DA:71,10
DA:71,10
DA:71,10
DA:72,10
DA:73,10
DA:74,10
DA:75,10
DA:76,10
DA:77,10
DA:79,10
DA:79,10
DA:79,10
DA:79,10
DA:80,10
DA:81,10
DA:82,10
DA:83,10
DA:84,10
DA:85,10
DA:86,10
DA:88,10
DA:88,10
DA:88,10
DA:88,10
DA:89,10
DA:90,10
DA:91,10
DA:92,10
DA:93,10
DA:94,10
DA:95,10
DA:97,20
DA:99,10
DA:100,10
DA:102,10
DA:102,10
DA:102,10
DA:102,10
DA:103,10
DA:104,10
DA:105,10
DA:106,10
DA:107,10
DA:108,10
DA:109,10
DA:111,20
DA:113,10
DA:114,10
DA:116,10
DA:116,10
DA:116,10
DA:116,10
DA:117,10
DA:118,10
DA:119,10
DA:120,10
DA:122,10
DA:123,10
DA:124,10
DA:126,10
DA:127,10
DA:128,20
DA:129,10
DA:130,10
DA:132,10
DA:132,10
DA:132,10
DA:132,10
DA:133,10
DA:134,10
DA:135,10
DA:136,10
DA:137,10
DA:139,10
DA:139,10
DA:139,10
DA:139,10
DA:140,10
DA:141,10
DA:142,10
DA:144,10
DA:145,10
DA:146,10
DA:147,10
DA:149,10
DA:149,10
DA:149,10
DA:149,10
DA:150,10
DA:151,10
DA:152,10
DA:154,10
DA:154,10
DA:154,10
DA:154,10
DA:155,10
DA:156,10
DA:158,10
DA:158,10
DA:158,10
DA:158,10
DA:159,10
DA:160,10
DA:161,10
DA:163,10
DA:163,10
DA:163,10
DA:163,10
DA:164,10
DA:165,10
DA:166,10
DA:167,10
DA:169,10
DA:170,10
DA:171,10
DA:172,10
DA:173,20
DA:174,10
DA:176,10
DA:176,10
DA:176,10
DA:176,10
DA:177,10
DA:178,10
DA:179,10
DA:181,10
DA:182,10
DA:183,10
DA:184,10
DA:185,20
DA:186,10
DA:188,10
DA:188,10
DA:188,10
DA:188,10
DA:189,10
DA:190,10
DA:191,10
DA:192,10
DA:194,10
DA:195,10
DA:196,10
DA:197,10
DA:198,20
DA:199,10
DA:201,10
DA:201,10
DA:201,10
DA:201,10
DA:202,10
DA:203,10
DA:204,10
DA:205,10
DA:206,10
DA:207,10
DA:209,10
DA:210,10
DA:211,10
end_of_record
SF:/home/businka/second_semester_programming/laba3/List.hpp
FN:9,_ZN10LinkedListIiEC2Ev
FNDA:20,_ZN10LinkedListIiEC2Ev
FN:10,_ZN10LinkedListIiED2Ev
FNDA:20,_ZN10LinkedListIiED2Ev
FN:77,_ZN10LinkedListIiE8pop_headEv
FNDA:0,_ZN10LinkedListIiE8pop_headEv
FN:87,_ZN10LinkedListIiE8pop_tailEv
FNDA:0,_ZN10LinkedListIiE8pop_tailEv
FN:127,_ZN10LinkedListIiE9pop_valueEi
FNDA:10,_ZN10LinkedListIiE9pop_valueEi
FN:157,_ZNK10LinkedListIiE9get_valueEi
FNDA:10,_ZNK10LinkedListIiE9get_valueEi
FN:214,_ZN10DoublyListIiEC2Ev
FNDA:180,_ZN10DoublyListIiEC2Ev
FN:215,_ZN10DoublyListIiED2Ev
FNDA:180,_ZN10DoublyListIiED2Ev
FN:222,_ZN10DoublyListIiE9push_backERKi
FNDA:270,_ZN10DoublyListIiE9push_backERKi
FN:233,_ZN10DoublyListIiE10push_frontERKi
FNDA:40,_ZN10DoublyListIiE10push_frontERKi
FN:244,_ZN10DoublyListIiE7push_inEiRKi
FNDA:60,_ZN10DoublyListIiE7push_inEiRKi
FN:279,_ZN10DoublyListIiE6searchEi
FNDA:20,_ZN10DoublyListIiE6searchEi
FN:289,_ZN10DoublyListIiE11pop_forwardEv
FNDA:40,_ZN10DoublyListIiE11pop_forwardEv
FN:301,_ZN10DoublyListIiE12pop_backwardEv
FNDA:40,_ZN10DoublyListIiE12pop_backwardEv
FN:312,_ZN10DoublyListIiE3popEi
FNDA:40,_ZN10DoublyListIiE3popEi
FN:341,_ZN10DoublyListIiE9pop_valueEi
FNDA:30,_ZN10DoublyListIiE9pop_valueEi
FN:364,_ZNK10DoublyListIiE9get_valueEi
FNDA:70,_ZNK10DoublyListIiE9get_valueEi
FN:387,_ZN10DoublyListIiE7displayEv
FNDA:80,_ZN10DoublyListIiE7displayEv
DA:9,20
DA:10,20
DA:11,20
DA:12,0
DA:13,0
DA:14,0
DA:16,20
DA:77,0
DA:78,0
DA:79,0
DA:82,0
DA:83,0
DA:84,0
DA:86,0
DA:87,0
DA:88,0
DA:89,0
DA:90,0
DA:91,0
DA:93,0
DA:94,0
DA:95,0
DA:96,0
DA:97,0
DA:99,0
DA:127,10
DA:128,10
DA:129,10
DA:130,10
DA:132,0
DA:133,0
DA:134,0
DA:136,0
DA:137,0
DA:138,0
DA:140,0
DA:141,0
DA:143,0
DA:144,0
DA:145,0
DA:148,0
DA:149,0
DA:150,0
DA:153,0
DA:154,0
DA:157,10
DA:158,10
DA:159,0
DA:162,10
DA:163,10
DA:166,0
DA:167,0
DA:169,0
DA:170,0
DA:171,0
DA:173,0
DA:174,0
DA:177,0
DA:214,180
DA:215,180
DA:216,420
DA:217,240
DA:218,240
DA:219,240
DA:221,180
DA:222,270
DA:223,270
DA:224,270
DA:225,120
DA:226,120
DA:228,150
DA:229,150
DA:230,150
DA:232,270
DA:233,40
DA:234,40
DA:235,40
DA:236,20
DA:237,20
DA:239,20
DA:240,20
DA:241,20
DA:243,40
DA:244,60
DA:245,60
DA:246,60
DA:247,10
DA:248,10
DA:249,50
DA:251,20
DA:253,30
DA:254,30
DA:257,80
DA:258,50
DA:259,50
DA:262,30
DA:264,20
DA:265,20
DA:266,20
DA:267,10
DA:269,10
DA:271,20
DA:274,10
DA:275,10
DA:279,20
DA:280,20
DA:281,30
DA:282,10
DA:284,20
DA:285,10
DA:286,10
DA:288,20
DA:289,40
DA:290,40
DA:291,40
DA:292,40
DA:294,40
DA:295,10
DA:297,30
DA:299,40
DA:301,40
DA:302,40
DA:303,40
DA:304,40
DA:305,40
DA:306,10
DA:308,30
DA:310,40
DA:312,40
DA:313,40
DA:314,10
DA:315,10
DA:317,30
DA:318,10
DA:321,20
DA:322,20
DA:324,40
DA:325,20
DA:326,20
DA:328,20
DA:329,10
DA:330,10
DA:332,10
DA:333,10
DA:334,10
DA:336,0
DA:337,0
DA:338,0
DA:341,30
DA:342,30
DA:343,30
DA:344,10
DA:345,10
DA:347,20
DA:348,10
DA:349,10
DA:351,10
DA:352,20
DA:353,10
DA:355,10
DA:356,0
DA:357,0
DA:359,10
DA:360,10
DA:361,10
DA:364,70
DA:365,70
DA:366,10
DA:369,60
DA:370,0
DA:373,60
DA:374,60
DA:376,100
DA:377,90
DA:378,50
DA:380,40
DA:381,40
DA:384,10
DA:387,80
DA:388,80
DA:389,250
DA:390,170
DA:391,170
DA:393,80
DA:394,80
end_of_record
SF:/home/businka/second_semester_programming/laba3/Node.hpp
FN:17,_ZN4NodeIiEC2ERKiPS0_S3_
FNDA:370,_ZN4NodeIiEC2ERKiPS0_S3_
DA:17,370
DA:18,370
DA:19,370
end_of_record
TN:
SF:/home/businka/second_semester_programming/laba3/queue_testing.cpp
FN:8,_ZN9QueueTest5SetUpEv
FNDA:28,_ZN9QueueTest5SetUpEv
FN:13,_ZN29QueueTest_PushAndDisplay_TestC2Ev
FNDA:4,_ZN29QueueTest_PushAndDisplay_TestC2Ev
FN:13,_ZN29QueueTest_PushAndDisplay_Test8TestBodyEv
FNDA:4,_ZN29QueueTest_PushAndDisplay_Test8TestBodyEv
FN:13,_ZN29QueueTest_PushAndDisplay_TestD0Ev
FNDA:4,_ZN29QueueTest_PushAndDisplay_TestD0Ev
FN:13,_ZN29QueueTest_PushAndDisplay_TestD2Ev
FNDA:4,_ZN29QueueTest_PushAndDisplay_TestD2Ev
FN:25,_ZN18QueueTest_Pop_TestC2Ev
FNDA:4,_ZN18QueueTest_Pop_TestC2Ev
FN:25,_ZN18QueueTest_Pop_Test8TestBodyEv
FNDA:4,_ZN18QueueTest_Pop_Test8TestBodyEv
FN:25,_ZN18QueueTest_Pop_TestD2Ev
FNDA:4,_ZN18QueueTest_Pop_TestD2Ev
FN:25,_ZN18QueueTest_Pop_TestD0Ev
FNDA:4,_ZN18QueueTest_Pop_TestD0Ev
FN:37,_ZN28QueueTest_PopEmptyQueue_TestC2Ev
FNDA:4,_ZN28QueueTest_PopEmptyQueue_TestC2Ev
FN:37,_ZN28QueueTest_PopEmptyQueue_TestD0Ev
FNDA:4,_ZN28QueueTest_PopEmptyQueue_TestD0Ev
FN:37,_ZN28QueueTest_PopEmptyQueue_TestD2Ev
FNDA:4,_ZN28QueueTest_PopEmptyQueue_TestD2Ev
FN:37,_ZN28QueueTest_PopEmptyQueue_Test8TestBodyEv
FNDA:4,_ZN28QueueTest_PopEmptyQueue_Test8TestBodyEv
FN:45,_ZN28QueueTest_PopUntilEmpty_TestD0Ev
FNDA:4,_ZN28QueueTest_PopUntilEmpty_TestD0Ev
FN:45,_ZN28QueueTest_PopUntilEmpty_TestD2Ev
FNDA:4,_ZN28QueueTest_PopUntilEmpty_TestD2Ev
FN:45,_ZN28QueueTest_PopUntilEmpty_TestC2Ev
FNDA:4,_ZN28QueueTest_PopUntilEmpty_TestC2Ev
FN:45,_ZN28QueueTest_PopUntilEmpty_Test8TestBodyEv
FNDA:4,_ZN28QueueTest_PopUntilEmpty_Test8TestBodyEv
FN:58,_ZN26QueueTest_SearchFound_TestD0Ev
FNDA:4,_ZN26QueueTest_SearchFound_TestD0Ev
FN:58,_ZN26QueueTest_SearchFound_TestD2Ev
FNDA:4,_ZN26QueueTest_SearchFound_TestD2Ev
FN:58,_ZN26QueueTest_SearchFound_TestC2Ev
FNDA:4,_ZN26QueueTest_SearchFound_TestC2Ev
FN:58,_ZN26QueueTest_SearchFound_Test8TestBodyEv
FNDA:4,_ZN26QueueTest_SearchFound_Test8TestBodyEv
FN:69,_ZN29QueueTest_SearchNotFound_TestC2Ev
FNDA:4,_ZN29QueueTest_SearchNotFound_TestC2Ev
FN:69,_ZN29QueueTest_SearchNotFound_Test8TestBodyEv
FNDA:4,_ZN29QueueTest_SearchNotFound_Test8TestBodyEv
FN:69,_ZN29QueueTest_SearchNotFound_TestD2Ev
FNDA:4,_ZN29QueueTest_SearchNotFound_TestD2Ev
FN:69,_ZN29QueueTest_SearchNotFound_TestD0Ev
FNDA:4,_ZN29QueueTest_SearchNotFound_TestD0Ev
FN:80,_ZN32QueueTest_DisplayEmptyQueue_Test8TestBodyEv
FNDA:4,_ZN32QueueTest_DisplayEmptyQueue_Test8TestBodyEv
FN:80,_ZN32QueueTest_DisplayEmptyQueue_TestD2Ev
FNDA:4,_ZN32QueueTest_DisplayEmptyQueue_TestD2Ev
FN:80,_ZN32QueueTest_DisplayEmptyQueue_TestD0Ev
FNDA:4,_ZN32QueueTest_DisplayEmptyQueue_TestD0Ev
FN:80,_ZN32QueueTest_DisplayEmptyQueue_TestC2Ev
FNDA:4,_ZN32QueueTest_DisplayEmptyQueue_TestC2Ev
FN:88,main
FNDA:4,main
DA:8,28
DA:10,28
DA:13,4
DA:13,4
DA:13,4
DA:13,4
DA:14,4
DA:15,4
DA:16,4
DA:18,4
DA:19,4
DA:20,4
DA:22,4
DA:23,4
DA:25,4
DA:25,4
DA:25,4
DA:25,4
DA:26,4
DA:27,4
DA:28,4
DA:30,4
DA:31,4
DA:32,4
DA:34,4
DA:35,4
DA:37,4
DA:37,4
DA:37,4
DA:37,4
DA:38,4
DA:39,4
DA:40,4
DA:42,4
DA:43,4
DA:45,4
DA:45,4
DA:45,4
DA:45,4
DA:46,4
DA:47,4
DA:48,4
DA:49,4
DA:51,4
DA:52,4
DA:53,4
DA:55,4
DA:56,4
DA:58,4
DA:58,4
DA:58,4
DA:58,4
DA:59,4
DA:60,4
DA:62,4
DA:63,4
DA:64,4
DA:66,4
DA:67,4
DA:69,4
DA:69,4
DA:69,4
DA:69,4
DA:70,4
DA:71,4
DA:73,4
DA:74,4
DA:75,4
DA:77,4
DA:78,4
DA:80,4
DA:80,4
DA:80,4
DA:80,4
DA:81,4
DA:82,4
DA:83,4
DA:85,4
DA:86,4
DA:88,4
DA:89,4
DA:90,4
end_of_record
SF:/home/businka/second_semester_programming/laba3/Node.hpp
FN:17,_ZN4NodeIiEC2ERKiPS0_S3_
FNDA:44,_ZN4NodeIiEC2ERKiPS0_S3_
DA:17,44
DA:18,44
DA:19,44
end_of_record
SF:/home/businka/second_semester_programming/laba3/Queue.hpp
FN:9,_ZN5QueueIiEC2Ev
FNDA:28,_ZN5QueueIiEC2Ev
FN:11,_ZN5QueueIiED2Ev
FNDA:28,_ZN5QueueIiED2Ev
FN:19,_ZN5QueueIiE4pushERKi
FNDA:44,_ZN5QueueIiE4pushERKi
FN:30,_ZN5QueueIiE6searchEi
FNDA:8,_ZN5QueueIiE6searchEi
FN:42,_ZN5QueueIiE3popEv
FNDA:20,_ZN5QueueIiE3popEv
FN:55,_ZN5QueueIiE7displayEv
FNDA:12,_ZN5QueueIiE7displayEv
DA:9,28
DA:11,28
DA:12,60
DA:13,32
DA:14,32
DA:15,32
DA:17,28
DA:19,44
DA:20,44
DA:21,44
DA:22,24
DA:24,44
DA:25,44
DA:26,20
DA:28,44
DA:30,8
DA:31,8
DA:32,20
DA:33,16
DA:34,4
DA:35,4
DA:37,12
DA:39,4
DA:42,20
DA:43,20
DA:44,8
DA:45,8
DA:47,12
DA:48,12
DA:49,12
DA:50,12
DA:51,4
DA:55,12
DA:56,12
DA:57,4
DA:58,4
DA:60,8
DA:61,24
DA:62,16
DA:63,16
DA:65,8
end_of_record
TN:
SF:/home/businka/second_semester_programming/laba3/stack_testing.cpp
FN:8,_ZN9StackTest5SetUpEv
FNDA:45,_ZN9StackTest5SetUpEv
FN:13,_ZN25StackTest_PushAndTop_TestC2Ev
FNDA:5,_ZN25StackTest_PushAndTop_TestC2Ev
FN:13,_ZN25StackTest_PushAndTop_Test8TestBodyEv
FNDA:5,_ZN25StackTest_PushAndTop_Test8TestBodyEv
FN:13,_ZN25StackTest_PushAndTop_TestD2Ev
FNDA:5,_ZN25StackTest_PushAndTop_TestD2Ev
FN:13,_ZN25StackTest_PushAndTop_TestD0Ev
FNDA:5,_ZN25StackTest_PushAndTop_TestD0Ev
FN:21,_ZN18StackTest_Pop_TestC2Ev
FNDA:5,_ZN18StackTest_Pop_TestC2Ev
FN:21,_ZN18StackTest_Pop_Test8TestBodyEv
FNDA:5,_ZN18StackTest_Pop_Test8TestBodyEv
FN:21,_ZN18StackTest_Pop_TestD2Ev
FNDA:5,_ZN18StackTest_Pop_TestD2Ev
FN:21,_ZN18StackTest_Pop_TestD0Ev
FNDA:5,_ZN18StackTest_Pop_TestD0Ev
FN:30,_ZN28StackTest_PopEmptyStack_TestC2Ev
FNDA:5,_ZN28StackTest_PopEmptyStack_TestC2Ev
FN:30,_ZN28StackTest_PopEmptyStack_TestD0Ev
FNDA:5,_ZN28StackTest_PopEmptyStack_TestD0Ev
FN:30,_ZN28StackTest_PopEmptyStack_TestD2Ev
FNDA:5,_ZN28StackTest_PopEmptyStack_TestD2Ev
FN:30,_ZN28StackTest_PopEmptyStack_Test8TestBodyEv
FNDA:5,_ZN28StackTest_PopEmptyStack_Test8TestBodyEv
FN:37,_ZN26StackTest_SearchFound_TestD0Ev
FNDA:5,_ZN26StackTest_SearchFound_TestD0Ev
FN:37,_ZN26StackTest_SearchFound_TestD2Ev
FNDA:5,_ZN26StackTest_SearchFound_TestD2Ev
FN:37,_ZN26StackTest_SearchFound_Test8TestBodyEv
FNDA:5,_ZN26StackTest_SearchFound_Test8TestBodyEv
FN:37,_ZN26StackTest_SearchFound_TestC2Ev
FNDA:5,_ZN26StackTest_SearchFound_TestC2Ev
FN:48,_ZN29StackTest_SearchNotFound_Test8TestBodyEv
FNDA:5,_ZN29StackTest_SearchNotFound_Test8TestBodyEv
FN:48,_ZN29StackTest_SearchNotFound_TestD0Ev
FNDA:5,_ZN29StackTest_SearchNotFound_TestD0Ev
FN:48,_ZN29StackTest_SearchNotFound_TestD2Ev
FNDA:5,_ZN29StackTest_SearchNotFound_TestD2Ev
FN:48,_ZN29StackTest_SearchNotFound_TestC2Ev
FNDA:5,_ZN29StackTest_SearchNotFound_TestC2Ev
FN:58,_ZN22StackTest_IsEmpty_TestD0Ev
FNDA:5,_ZN22StackTest_IsEmpty_TestD0Ev
FN:58,_ZN22StackTest_IsEmpty_Test8TestBodyEv
FNDA:5,_ZN22StackTest_IsEmpty_Test8TestBodyEv
FN:58,_ZN22StackTest_IsEmpty_TestD2Ev
FNDA:5,_ZN22StackTest_IsEmpty_TestD2Ev
FN:58,_ZN22StackTest_IsEmpty_TestC2Ev
FNDA:5,_ZN22StackTest_IsEmpty_TestC2Ev
FN:64,_ZN23StackTest_TopEmphy_TestD2Ev
FNDA:5,_ZN23StackTest_TopEmphy_TestD2Ev
FN:64,_ZN23StackTest_TopEmphy_TestD0Ev
FNDA:5,_ZN23StackTest_TopEmphy_TestD0Ev
FN:64,_ZN23StackTest_TopEmphy_TestC2Ev
FNDA:5,_ZN23StackTest_TopEmphy_TestC2Ev
FN:64,_ZN23StackTest_TopEmphy_Test8TestBodyEv
FNDA:5,_ZN23StackTest_TopEmphy_Test8TestBodyEv
FN:71,_ZN27StackTest_DisplayStack_TestD0Ev
FNDA:5,_ZN27StackTest_DisplayStack_TestD0Ev
FN:71,_ZN27StackTest_DisplayStack_Test8TestBodyEv
FNDA:5,_ZN27StackTest_DisplayStack_Test8TestBodyEv
FN:71,_ZN27StackTest_DisplayStack_TestD2Ev
FNDA:5,_ZN27StackTest_DisplayStack_TestD2Ev
FN:71,_ZN27StackTest_DisplayStack_TestC2Ev
FNDA:5,_ZN27StackTest_DisplayStack_TestC2Ev
FN:83,_ZN32StackTest_DisplayEmptyStack_Test8TestBodyEv
FNDA:5,_ZN32StackTest_DisplayEmptyStack_Test8TestBodyEv
FN:83,_ZN32StackTest_DisplayEmptyStack_TestD2Ev
FNDA:5,_ZN32StackTest_DisplayEmptyStack_TestD2Ev
FN:83,_ZN32StackTest_DisplayEmptyStack_TestD0Ev
FNDA:5,_ZN32StackTest_DisplayEmptyStack_TestD0Ev
FN:83,_ZN32StackTest_DisplayEmptyStack_TestC2Ev
FNDA:5,_ZN32StackTest_DisplayEmptyStack_TestC2Ev
FN:91,main
FNDA:5,main
DA:8,45
DA:10,45
DA:13,5
DA:13,5
DA:13,5
DA:13,5
DA:14,5
DA:15,5
DA:16,5
DA:18,5
DA:19,5
DA:21,5
DA:21,5
DA:21,5
DA:21,5
DA:22,5
DA:23,5
DA:24,5
DA:26,5
DA:27,5
DA:28,5
DA:30,5
DA:30,5
DA:30,5
DA:30,5
DA:31,5
DA:32,5
DA:33,5
DA:34,5
DA:35,5
DA:37,5
DA:37,5
DA:37,5
DA:37,5
DA:38,5
DA:39,5
DA:40,5
DA:42,5
DA:43,5
DA:44,5
DA:45,5
DA:46,5
DA:48,5
DA:48,5
DA:48,5
DA:48,5
DA:49,5
DA:50,5
DA:52,5
DA:53,5
DA:54,5
DA:55,5
DA:56,5
DA:58,5
DA:58,5
DA:58,5
DA:58,5
DA:59,5
DA:60,5
DA:61,5
DA:62,5
DA:64,5
DA:64,5
DA:64,5
DA:64,5
DA:65,5
DA:66,5
DA:67,5
DA:68,5
DA:69,5
DA:71,5
DA:71,5
DA:71,5
DA:71,5
DA:72,5
DA:73,5
DA:74,5
DA:76,5
DA:77,5
DA:78,5
DA:80,5
DA:81,5
DA:83,5
DA:83,5
DA:83,5
DA:83,5
DA:84,5
DA:85,5
DA:86,5
DA:88,5
DA:89,5
DA:91,5
DA:92,5
DA:93,5
end_of_record
SF:/home/businka/second_semester_programming/laba3/Node.hpp
FN:17,_ZN4NodeIiEC2ERKiPS0_S3_
FNDA:75,_ZN4NodeIiEC2ERKiPS0_S3_
DA:17,75
DA:18,75
DA:19,75
end_of_record
SF:/home/businka/second_semester_programming/laba3/Stack.hpp
FN:9,_ZN5StackIiEC2Ev
FNDA:45,_ZN5StackIiEC2Ev
FN:10,_ZN5StackIiE4pushERKi
FNDA:75,_ZN5StackIiE4pushERKi
FN:14,_ZN5StackIiE3popEv
FNDA:10,_ZN5StackIiE3popEv
FN:23,_ZN5StackIiE6searchERKi
FNDA:10,_ZN5StackIiE6searchERKi
FN:34,_ZN5StackIiE7displayEv
FNDA:10,_ZN5StackIiE7displayEv
FN:43,_ZN5StackIiE7isEmptyEv
FNDA:10,_ZN5StackIiE7isEmptyEv
FN:46,_ZN5StackIiE3topEv
FNDA:15,_ZN5StackIiE3topEv
DA:9,45
DA:10,75
DA:11,75
DA:12,75
DA:13,75
DA:14,10
DA:15,10
DA:16,5
DA:17,5
DA:19,5
DA:20,5
DA:21,5
DA:23,10
DA:24,10
DA:25,25
DA:26,20
DA:27,5
DA:28,5
DA:30,15
DA:32,5
DA:34,10
DA:35,10
DA:36,25
DA:37,15
DA:38,15
DA:40,10
DA:41,10
DA:43,10
DA:44,10
DA:46,15
DA:47,15
DA:48,5
DA:49,5
DA:51,10
end_of_record
TN:
SF:/home/businka/second_semester_programming/laba3/hashtable_testing.cpp
FN:8,_ZN11HashMapTest5SetUpEv
FNDA:6,_ZN11HashMapTest5SetUpEv
FN:13,_ZN29HashMapTest_InsertAndGet_TestC2Ev
FNDA:1,_ZN29HashMapTest_InsertAndGet_TestC2Ev
FN:13,_ZN29HashMapTest_InsertAndGet_Test8TestBodyEv
FNDA:1,_ZN29HashMapTest_InsertAndGet_Test8TestBodyEv
FN:13,_ZN29HashMapTest_InsertAndGet_TestD2Ev
FNDA:1,_ZN29HashMapTest_InsertAndGet_TestD2Ev
FN:13,_ZN29HashMapTest_InsertAndGet_TestD0Ev
FNDA:1,_ZN29HashMapTest_InsertAndGet_TestD0Ev
FN:23,_ZN34HashMapTest_GetNonExistentKey_TestC2Ev
FNDA:1,_ZN34HashMapTest_GetNonExistentKey_TestC2Ev
FN:23,_ZN34HashMapTest_GetNonExistentKey_Test8TestBodyEv
FNDA:1,_ZN34HashMapTest_GetNonExistentKey_Test8TestBodyEv
FN:23,_ZN34HashMapTest_GetNonExistentKey_TestD2Ev
FNDA:1,_ZN34HashMapTest_GetNonExistentKey_TestD2Ev
FN:23,_ZN34HashMapTest_GetNonExistentKey_TestD0Ev
FNDA:1,_ZN34HashMapTest_GetNonExistentKey_TestD0Ev
FN:27,_ZN35HashMapTest_InsertDuplicateKey_TestC2Ev
FNDA:1,_ZN35HashMapTest_InsertDuplicateKey_TestC2Ev
FN:27,_ZN35HashMapTest_InsertDuplicateKey_Test8TestBodyEv
FNDA:1,_ZN35HashMapTest_InsertDuplicateKey_Test8TestBodyEv
FN:27,_ZN35HashMapTest_InsertDuplicateKey_TestD2Ev
FNDA:1,_ZN35HashMapTest_InsertDuplicateKey_TestD2Ev
FN:27,_ZN35HashMapTest_InsertDuplicateKey_TestD0Ev
FNDA:1,_ZN35HashMapTest_InsertDuplicateKey_TestD0Ev
FN:34,_ZN26HashMapTest_RemoveKey_TestD0Ev
FNDA:1,_ZN26HashMapTest_RemoveKey_TestD0Ev
FN:34,_ZN26HashMapTest_RemoveKey_Test8TestBodyEv
FNDA:1,_ZN26HashMapTest_RemoveKey_Test8TestBodyEv
FN:34,_ZN26HashMapTest_RemoveKey_TestD2Ev
FNDA:1,_ZN26HashMapTest_RemoveKey_TestD2Ev
FN:34,_ZN26HashMapTest_RemoveKey_TestC2Ev
FNDA:1,_ZN26HashMapTest_RemoveKey_TestC2Ev
FN:41,_ZN37HashMapTest_RemoveNonExistentKey_TestD0Ev
FNDA:1,_ZN37HashMapTest_RemoveNonExistentKey_TestD0Ev
FN:41,_ZN37HashMapTest_RemoveNonExistentKey_TestD2Ev
FNDA:1,_ZN37HashMapTest_RemoveNonExistentKey_TestD2Ev
FN:41,_ZN37HashMapTest_RemoveNonExistentKey_Test8TestBodyEv
FNDA:1,_ZN37HashMapTest_RemoveNonExistentKey_Test8TestBodyEv
FN:41,_ZN37HashMapTest_RemoveNonExistentKey_TestC2Ev
FNDA:1,_ZN37HashMapTest_RemoveNonExistentKey_TestC2Ev
FN:47,_ZN24HashMapTest_Display_TestC2Ev
FNDA:1,_ZN24HashMapTest_Display_TestC2Ev
FN:47,_ZN24HashMapTest_Display_Test8TestBodyEv
FNDA:1,_ZN24HashMapTest_Display_Test8TestBodyEv
FN:47,_ZN24HashMapTest_Display_TestD0Ev
FNDA:1,_ZN24HashMapTest_Display_TestD0Ev
FN:47,_ZN24HashMapTest_Display_TestD2Ev
FNDA:1,_ZN24HashMapTest_Display_TestD2Ev
FN:64,_ZN20HashMapCollisionTest5SetUpEv
FNDA:6,_ZN20HashMapCollisionTest5SetUpEv
FN:72,_ZN47HashMapCollisionTest_GetValueWithCollision_TestD0Ev
FNDA:1,_ZN47HashMapCollisionTest_GetValueWithCollision_TestD0Ev
FN:72,_ZN47HashMapCollisionTest_GetValueWithCollision_Test8TestBodyEv
FNDA:1,_ZN47HashMapCollisionTest_GetValueWithCollision_Test8TestBodyEv
FN:72,_ZN47HashMapCollisionTest_GetValueWithCollision_TestD2Ev
FNDA:1,_ZN47HashMapCollisionTest_GetValueWithCollision_TestD2Ev
FN:72,_ZN47HashMapCollisionTest_GetValueWithCollision_TestC2Ev
FNDA:1,_ZN47HashMapCollisionTest_GetValueWithCollision_TestC2Ev
FN:78,_ZN43HashMapCollisionTest_GetNonExistentKey_TestD2Ev
FNDA:1,_ZN43HashMapCollisionTest_GetNonExistentKey_TestD2Ev
FN:78,_ZN43HashMapCollisionTest_GetNonExistentKey_TestD0Ev
FNDA:1,_ZN43HashMapCollisionTest_GetNonExistentKey_TestD0Ev
FN:78,_ZN43HashMapCollisionTest_GetNonExistentKey_TestC2Ev
FNDA:1,_ZN43HashMapCollisionTest_GetNonExistentKey_TestC2Ev
FN:78,_ZN43HashMapCollisionTest_GetNonExistentKey_Test8TestBodyEv
FNDA:1,_ZN43HashMapCollisionTest_GetNonExistentKey_Test8TestBodyEv
FN:82,_ZN45HashMapCollisionTest_RemoveMiddleElement_TestD0Ev
FNDA:1,_ZN45HashMapCollisionTest_RemoveMiddleElement_TestD0Ev
FN:82,_ZN45HashMapCollisionTest_RemoveMiddleElement_TestD2Ev
FNDA:1,_ZN45HashMapCollisionTest_RemoveMiddleElement_TestD2Ev
FN:82,_ZN45HashMapCollisionTest_RemoveMiddleElement_TestC2Ev
FNDA:1,_ZN45HashMapCollisionTest_RemoveMiddleElement_TestC2Ev
FN:82,_ZN45HashMapCollisionTest_RemoveMiddleElement_Test8TestBodyEv
FNDA:1,_ZN45HashMapCollisionTest_RemoveMiddleElement_Test8TestBodyEv
FN:93,_ZN43HashMapCollisionTest_RemoveHeadElement_TestD0Ev
FNDA:1,_ZN43HashMapCollisionTest_RemoveHeadElement_TestD0Ev
FN:93,_ZN43HashMapCollisionTest_RemoveHeadElement_Test8TestBodyEv
FNDA:1,_ZN43HashMapCollisionTest_RemoveHeadElement_Test8TestBodyEv
FN:93,_ZN43HashMapCollisionTest_RemoveHeadElement_TestD2Ev
FNDA:1,_ZN43HashMapCollisionTest_RemoveHeadElement_TestD2Ev
FN:93,_ZN43HashMapCollisionTest_RemoveHeadElement_TestC2Ev
FNDA:1,_ZN43HashMapCollisionTest_RemoveHeadElement_TestC2Ev
FN:104,_ZN43HashMapCollisionTest_RemoveTailElement_Test8TestBodyEv
FNDA:1,_ZN43HashMapCollisionTest_RemoveTailElement_Test8TestBodyEv
FN:104,_ZN43HashMapCollisionTest_RemoveTailElement_TestD2Ev
FNDA:1,_ZN43HashMapCollisionTest_RemoveTailElement_TestD2Ev
FN:104,_ZN43HashMapCollisionTest_RemoveTailElement_TestD0Ev
FNDA:1,_ZN43HashMapCollisionTest_RemoveTailElement_TestD0Ev
FN:104,_ZN43HashMapCollisionTest_RemoveTailElement_TestC2Ev
FNDA:1,_ZN43HashMapCollisionTest_RemoveTailElement_TestC2Ev
FN:115,_ZN50HashMapCollisionTest_RemoveNonExistentElement_Test8TestBodyEv
FNDA:1,_ZN50HashMapCollisionTest_RemoveNonExistentElement_Test8TestBodyEv
FN:115,_ZN50HashMapCollisionTest_RemoveNonExistentElement_TestD2Ev
FNDA:1,_ZN50HashMapCollisionTest_RemoveNonExistentElement_TestD2Ev
FN:115,_ZN50HashMapCollisionTest_RemoveNonExistentElement_TestD0Ev
FNDA:1,_ZN50HashMapCollisionTest_RemoveNonExistentElement_TestD0Ev
FN:115,_ZN50HashMapCollisionTest_RemoveNonExistentElement_TestC2Ev
FNDA:1,_ZN50HashMapCollisionTest_RemoveNonExistentElement_TestC2Ev
FN:124,main
FNDA:1,main
DA:8,6
DA:10,6
DA:13,1
DA:13,1
DA:13,1
DA:13,1
DA:14,1
DA:15,1
DA:16,1
DA:18,2
DA:19,2
DA:20,2
DA:21,1
DA:23,1
DA:23,1
DA:23,1
DA:23,1
DA:24,2
DA:25,1
DA:27,1
DA:27,1
DA:27,1
DA:27,1
DA:28,1
DA:29,1
DA:31,2
DA:32,1
DA:34,1
DA:34,1
DA:34,1
DA:34,1
DA:35,1
DA:36,1
DA:38,2
DA:39,1
DA:41,1
DA:41,1
DA:41,1
DA:41,1
DA:42,1
DA:43,1
DA:44,2
DA:45,1
DA:47,1
DA:47,1
DA:47,1
DA:47,1
DA:48,1
DA:49,1
DA:50,1
DA:51,1
DA:52,1
DA:54,1
DA:55,1
DA:56,1
DA:57,1
DA:58,1
DA:64,6
DA:66,6
DA:67,6
DA:68,6
DA:69,6
DA:72,1
DA:72,1
DA:72,1
DA:72,1
DA:73,2
DA:74,2
DA:75,2
DA:76,1
DA:78,1
DA:78,1
DA:78,1
DA:78,1
DA:79,2
DA:80,1
DA:82,1
DA:82,1
DA:82,1
DA:82,1
DA:83,1
DA:86,2
DA:89,2
DA:90,2
DA:91,1
DA:93,1
DA:93,1
DA:93,1
DA:93,1
DA:94,1
DA:97,2
DA:100,2
DA:101,2
DA:102,1
DA:104,1
DA:104,1
DA:104,1
DA:104,1
DA:105,1
DA:108,2
DA:111,2
DA:112,2
DA:113,1
DA:115,1
DA:115,1
DA:115,1
DA:115,1
DA:116,1
DA:119,2
DA:120,2
DA:121,2
DA:122,1
DA:124,1
DA:125,1
DA:126,1
end_of_record
SF:/home/businka/second_semester_programming/laba3/hash_function.hpp
FN:7,_ZNK13Hash_functionIiEclERKim
FNDA:57,_ZNK13Hash_functionIiEclERKim
DA:7,57
DA:9,57
DA:10,57
DA:11,57
DA:12,285
DA:13,228
DA:15,57
end_of_record
SF:/home/businka/second_semester_programming/laba3/hash_node.hpp
FN:10,_ZN9Hash_nodeIiNSt7__cxx1112basic_stringIcSt11char_traitsIcESaIcEEEEC2ERKiRKS5_
FNDA:27,_ZN9Hash_nodeIiNSt7__cxx1112basic_stringIcSt11char_traitsIcESaIcEEEEC2ERKiRKS5_
FN:13,_ZNK9Hash_nodeIiNSt7__cxx1112basic_stringIcSt11char_traitsIcESaIcEEEE7get_keyEv
FNDA:61,_ZNK9Hash_nodeIiNSt7__cxx1112basic_stringIcSt11char_traitsIcESaIcEEEE7get_keyEv
FN:18,_ZNK9Hash_nodeIiNSt7__cxx1112basic_stringIcSt11char_traitsIcESaIcEEEE9get_valueEv
FNDA:20,_ZNK9Hash_nodeIiNSt7__cxx1112basic_stringIcSt11char_traitsIcESaIcEEEE9get_valueEv
FN:23,_ZN9Hash_nodeIiNSt7__cxx1112basic_stringIcSt11char_traitsIcESaIcEEEE9set_valueES5_
FNDA:1,_ZN9Hash_nodeIiNSt7__cxx1112basic_stringIcSt11char_traitsIcESaIcEEEE9set_valueES5_
FN:28,_ZNK9Hash_nodeIiNSt7__cxx1112basic_stringIcSt11char_traitsIcESaIcEEEE8get_nextEv
FNDA:66,_ZNK9Hash_nodeIiNSt7__cxx1112basic_stringIcSt11char_traitsIcESaIcEEEE8get_nextEv
FN:33,_ZN9Hash_nodeIiNSt7__cxx1112basic_stringIcSt11char_traitsIcESaIcEEEE8set_nextEPS6_
FNDA:14,_ZN9Hash_nodeIiNSt7__cxx1112basic_stringIcSt11char_traitsIcESaIcEEEE8set_nextEPS6_
DA:10,27
DA:11,27
DA:13,61
DA:15,61
DA:18,20
DA:20,20
DA:23,1
DA:25,1
DA:26,1
DA:28,66
DA:30,66
DA:33,14
DA:35,14
DA:36,14
end_of_record
SF:/home/businka/second_semester_programming/laba3/HashTable.hpp
FN:9,_ZN8Hash_mapIiNSt7__cxx1112basic_stringIcSt11char_traitsIcESaIcEEELm10E13Hash_functionIiEEC2Ev
FNDA:12,_ZN8Hash_mapIiNSt7__cxx1112basic_stringIcSt11char_traitsIcESaIcEEELm10E13Hash_functionIiEEC2Ev
FN:14,_ZN8Hash_mapIiNSt7__cxx1112basic_stringIcSt11char_traitsIcESaIcEEELm10E13Hash_functionIiEED2Ev
FNDA:12,_ZN8Hash_mapIiNSt7__cxx1112basic_stringIcSt11char_traitsIcESaIcEEELm10E13Hash_functionIiEED2Ev
FN:27,_ZN8Hash_mapIiNSt7__cxx1112basic_stringIcSt11char_traitsIcESaIcEEELm10E13Hash_functionIiEE9get_valueERKi
FNDA:23,_ZN8Hash_mapIiNSt7__cxx1112basic_stringIcSt11char_traitsIcESaIcEEELm10E13Hash_functionIiEE9get_valueERKi
FN:40,_ZN8Hash_mapIiNSt7__cxx1112basic_stringIcSt11char_traitsIcESaIcEEELm10E13Hash_functionIiEE6insertERKiRKS5_
FNDA:28,_ZN8Hash_mapIiNSt7__cxx1112basic_stringIcSt11char_traitsIcESaIcEEELm10E13Hash_functionIiEE6insertERKiRKS5_
FN:67,_ZN8Hash_mapIiNSt7__cxx1112basic_stringIcSt11char_traitsIcESaIcEEELm10E13Hash_functionIiEE6removeERKi
FNDA:6,_ZN8Hash_mapIiNSt7__cxx1112basic_stringIcSt11char_traitsIcESaIcEEELm10E13Hash_functionIiEE6removeERKi
FN:96,_ZN8Hash_mapIiNSt7__cxx1112basic_stringIcSt11char_traitsIcESaIcEEELm10E13Hash_functionIiEE7displayEv
FNDA:1,_ZN8Hash_mapIiNSt7__cxx1112basic_stringIcSt11char_traitsIcESaIcEEELm10E13Hash_functionIiEE7displayEv
DA:9,12
DA:10,132
DA:11,120
DA:13,12
DA:14,12
DA:16,132
DA:17,120
DA:18,143
DA:19,23
DA:20,23
DA:21,23
DA:25,12
DA:27,23
DA:28,23
DA:29,23
DA:31,38
DA:32,32
DA:33,17
DA:35,15
DA:37,6
DA:40,28
DA:42,28
DA:43,28
DA:44,28
DA:46,46
DA:47,18
DA:48,18
DA:51,28
DA:52,27
DA:54,27
DA:55,15
DA:58,12
DA:63,1
DA:65,28
DA:67,6
DA:68,6
DA:69,6
DA:70,6
DA:72,9
DA:73,7
DA:74,3
DA:75,3
DA:77,4
DA:81,6
DA:82,2
DA:85,4
DA:86,2
DA:89,2
DA:92,4
DA:96,1
DA:97,11
DA:98,10
DA:99,13
DA:100,3
DA:101,3
DA:104,1
end_of_record
